target datalayout = "e-m:e-p270:32:32-p271:32:32-p272:64:64-i64:64-i128:128-f80:128-n8:16:32:64-S128"
target triple = "x86_64-unknown-linux-gnu"

%"struct.re2::UGroup" = type { ptr, i32, ptr, i32, ptr, i32 }
%"class.absl::debian2::string_view" = type { ptr, i64 }
%class.anon = type { i8 }
%class.anon.29 = type { i8 }
%class.anon.27 = type { i8 }

@_ZN3re211perl_groupsE = external global [0 x %"struct.re2::UGroup"], align 8
@_ZN3re215num_perl_groupsE = external constant i32, align 4

; Function Attrs: mustprogress nounwind uwtable
define linkonce_odr noundef zeroext i1 @_ZNK4absl7debian211string_view5emptyEv(ptr noundef nonnull align 8 dereferenceable(16) %this) #0 comdat align 2 {
entry:
  %this.addr = alloca ptr, align 8
  store ptr %this, ptr %this.addr, align 8
  %this1 = load ptr, ptr %this.addr, align 8
  %length_ = getelementptr inbounds %"class.absl::debian2::string_view", ptr %this1, i32 0, i32 1
  %0 = load i64, ptr %length_, align 8
  %cmp = icmp eq i64 %0, 0
  ret i1 %cmp
}

; Function Attrs: mustprogress nounwind uwtable
define linkonce_odr noundef i64 @_ZN4absl7debian211string_view14StrlenInternalEPKc(ptr noundef %str) #0 comdat align 2 {
entry:
  %str.addr = alloca ptr, align 8
  store ptr %str, ptr %str.addr, align 8
  %0 = load ptr, ptr %str.addr, align 8
  %call = call i64 @strlen(ptr noundef %0) #12
  ret i64 %call
}

; Function Attrs: mustprogress nounwind uwtable
define linkonce_odr noundef zeroext i1 @_ZN4absl7debian2eqENS0_11string_viewES1_(ptr %x.coerce0, i64 %x.coerce1, ptr %y.coerce0, i64 %y.coerce1) #0 comdat {
entry:
  %x = alloca %"class.absl::debian2::string_view", align 8
  %y = alloca %"class.absl::debian2::string_view", align 8
  %0 = getelementptr inbounds { ptr, i64 }, ptr %x, i32 0, i32 0
  store ptr %x.coerce0, ptr %0, align 8
  %1 = getelementptr inbounds { ptr, i64 }, ptr %x, i32 0, i32 1
  store i64 %x.coerce1, ptr %1, align 8
  %2 = getelementptr inbounds { ptr, i64 }, ptr %y, i32 0, i32 0
  store ptr %y.coerce0, ptr %2, align 8
  %3 = getelementptr inbounds { ptr, i64 }, ptr %y, i32 0, i32 1
  store i64 %y.coerce1, ptr %3, align 8
  %call = call noundef i64 @_ZNK4absl7debian211string_view4sizeEv(ptr noundef nonnull align 8 dereferenceable(16) %x) #12
  %call1 = call noundef i64 @_ZNK4absl7debian211string_view4sizeEv(ptr noundef nonnull align 8 dereferenceable(16) %y) #12
  %cmp = icmp eq i64 %call, %call1
  br i1 %cmp, label %land.rhs, label %land.end

land.rhs:                                         ; preds = %entry
  %call2 = call noundef zeroext i1 @_ZNK4absl7debian211string_view5emptyEv(ptr noundef nonnull align 8 dereferenceable(16) %x) #12
  br i1 %call2, label %lor.end, label %lor.rhs

lor.rhs:                                          ; preds = %land.rhs
  %call3 = call noundef ptr @_ZNK4absl7debian211string_view4dataEv(ptr noundef nonnull align 8 dereferenceable(16) %x) #12
  %call4 = call noundef ptr @_ZNK4absl7debian211string_view4dataEv(ptr noundef nonnull align 8 dereferenceable(16) %y) #12
  %call5 = call noundef i64 @_ZNK4absl7debian211string_view4sizeEv(ptr noundef nonnull align 8 dereferenceable(16) %x) #12
  %call6 = call i32 @memcmp(ptr noundef %call3, ptr noundef %call4, i64 noundef %call5) #12
  %cmp7 = icmp eq i32 %call6, 0
  br label %lor.end

lor.end:                                          ; preds = %lor.rhs, %land.rhs
  %4 = phi i1 [ true, %land.rhs ], [ %cmp7, %lor.rhs ]
  br label %land.end

land.end:                                         ; preds = %lor.end, %entry
  %5 = phi i1 [ false, %entry ], [ %4, %lor.end ]
  ret i1 %5
}

; Function Attrs: mustprogress uwtable
define linkonce_odr void @_ZN4absl7debian211string_viewC2EPKc(ptr noundef nonnull align 8 dereferenceable(16) %this, ptr noundef %str) unnamed_addr #1 comdat align 2 {
entry:
  %this.addr = alloca ptr, align 8
  %str.addr = alloca ptr, align 8
  store ptr %this, ptr %this.addr, align 8
  store ptr %str, ptr %str.addr, align 8
  %this1 = load ptr, ptr %this.addr, align 8
  %ptr_ = getelementptr inbounds %"class.absl::debian2::string_view", ptr %this1, i32 0, i32 0
  %0 = load ptr, ptr %str.addr, align 8
  store ptr %0, ptr %ptr_, align 8
  %length_ = getelementptr inbounds %"class.absl::debian2::string_view", ptr %this1, i32 0, i32 1
  %1 = load ptr, ptr %str.addr, align 8
  %tobool = icmp ne ptr %1, null
  br i1 %tobool, label %cond.true, label %cond.false

cond.true:                                        ; preds = %entry
  %2 = load ptr, ptr %str.addr, align 8
  %call = call noundef i64 @_ZN4absl7debian211string_view14StrlenInternalEPKc(ptr noundef %2)
  %call2 = call noundef i64 @_ZN4absl7debian211string_view19CheckLengthInternalEm(i64 noundef %call)
  br label %cond.end

cond.false:                                       ; preds = %entry
  br label %cond.end

cond.end:                                         ; preds = %cond.false, %cond.true
  %cond = phi i64 [ %call2, %cond.true ], [ 0, %cond.false ]
  store i64 %cond, ptr %length_, align 8
  ret void
}

; Function Attrs: mustprogress nounwind uwtable
define linkonce_odr void @_ZZN4absl7debian211string_view19CheckLengthInternalEmENKUlvE_clEv(ptr noundef nonnull align 1 dereferenceable(1) %this) #0 comdat align 2 {
entry:
  %this.addr = alloca ptr, align 8
  store ptr %this, ptr %this.addr, align 8
  br label %do.body

do.body:                                          ; preds = %entry
  call void @llvm.trap()
  unreachable

do.end:                                           ; No predecessors!
  ret void
}

; Function Attrs: mustprogress nounwind uwtable
define linkonce_odr void @_ZZN4absl7debian211string_view13remove_prefixEmENKUlvE_clEv(ptr noundef nonnull align 1 dereferenceable(1) %this) #0 comdat align 2 {
entry:
  %this.addr = alloca ptr, align 8
  store ptr %this, ptr %this.addr, align 8
  br label %do.body

do.body:                                          ; preds = %entry
  call void @llvm.trap()
  unreachable

do.end:                                           ; No predecessors!
  ret void
}

; Function Attrs: mustprogress uwtable
define internal noundef ptr @_ZN3re2L11LookupGroupEN4absl7debian211string_viewEPKNS_6UGroupEi(ptr %name.coerce0, i64 %name.coerce1, ptr noundef %groups, i32 noundef %ngroups) #1 {
entry:
  %retval = alloca ptr, align 8
  %name = alloca %"class.absl::debian2::string_view", align 8
  %groups.addr = alloca ptr, align 8
  %ngroups.addr = alloca i32, align 4
  %i = alloca i32, align 4
  %agg.tmp = alloca %"class.absl::debian2::string_view", align 8
  %agg.tmp2 = alloca %"class.absl::debian2::string_view", align 8
  %0 = getelementptr inbounds { ptr, i64 }, ptr %name, i32 0, i32 0
  store ptr %name.coerce0, ptr %0, align 8
  %1 = getelementptr inbounds { ptr, i64 }, ptr %name, i32 0, i32 1
  store i64 %name.coerce1, ptr %1, align 8
  store ptr %groups, ptr %groups.addr, align 8
  store i32 %ngroups, ptr %ngroups.addr, align 4
  store i32 0, ptr %i, align 4
  br label %for.cond

for.cond:                                         ; preds = %for.inc, %entry
  %2 = load i32, ptr %i, align 4
  %3 = load i32, ptr %ngroups.addr, align 4
  %cmp = icmp slt i32 %2, %3
  br i1 %cmp, label %for.body, label %for.end

for.body:                                         ; preds = %for.cond
  %4 = load ptr, ptr %groups.addr, align 8
  %5 = load i32, ptr %i, align 4
  %idxprom = sext i32 %5 to i64
  %arrayidx = getelementptr inbounds %"struct.re2::UGroup", ptr %4, i64 %idxprom
  %name1 = getelementptr inbounds %"struct.re2::UGroup", ptr %arrayidx, i32 0, i32 0
  %6 = load ptr, ptr %name1, align 8
  call void @_ZN4absl7debian211string_viewC2EPKc(ptr noundef nonnull align 8 dereferenceable(16) %agg.tmp, ptr noundef %6)
  call void @llvm.memcpy.p0.p0.i64(ptr align 8 %agg.tmp2, ptr align 8 %name, i64 16, i1 false)
  %7 = getelementptr inbounds { ptr, i64 }, ptr %agg.tmp, i32 0, i32 0
  %8 = load ptr, ptr %7, align 8
  %9 = getelementptr inbounds { ptr, i64 }, ptr %agg.tmp, i32 0, i32 1
  %10 = load i64, ptr %9, align 8
  %11 = getelementptr inbounds { ptr, i64 }, ptr %agg.tmp2, i32 0, i32 0
  %12 = load ptr, ptr %11, align 8
  %13 = getelementptr inbounds { ptr, i64 }, ptr %agg.tmp2, i32 0, i32 1
  %14 = load i64, ptr %13, align 8
  %call = call noundef zeroext i1 @_ZN4absl7debian2eqENS0_11string_viewES1_(ptr %8, i64 %10, ptr %12, i64 %14) #12
  br i1 %call, label %if.then, label %if.end

if.then:                                          ; preds = %for.body
  %15 = load ptr, ptr %groups.addr, align 8
  %16 = load i32, ptr %i, align 4
  %idxprom3 = sext i32 %16 to i64
  %arrayidx4 = getelementptr inbounds %"struct.re2::UGroup", ptr %15, i64 %idxprom3
  store ptr %arrayidx4, ptr %retval, align 8
  br label %return

if.end:                                           ; preds = %for.body
  br label %for.inc

for.inc:                                          ; preds = %if.end
  %17 = load i32, ptr %i, align 4
  %inc = add nsw i32 %17, 1
  store i32 %inc, ptr %i, align 4
  br label %for.cond, !llvm.loop !48

for.end:                                          ; preds = %for.cond
  store ptr null, ptr %retval, align 8
  br label %return

return:                                           ; preds = %for.end, %if.then
  %18 = load ptr, ptr %retval, align 8
  ret ptr %18
}

; Function Attrs: mustprogress uwtable
define linkonce_odr noundef i64 @_ZN4absl7debian211string_view19CheckLengthInternalEm(i64 noundef %len) #1 comdat align 2 {
entry:
  %len.addr = alloca i64, align 8
  %ref.tmp = alloca %class.anon.27, align 1
  store i64 %len, ptr %len.addr, align 8
  %0 = load i64, ptr %len.addr, align 8
  %cmp = icmp ule i64 %0, 9223372036854775807
  br i1 %cmp, label %cond.true, label %cond.false

cond.true:                                        ; preds = %entry
  br label %cond.end

cond.false:                                       ; preds = %entry
  call void @_ZZN4absl7debian211string_view19CheckLengthInternalEmENKUlvE_clEv(ptr noundef nonnull align 1 dereferenceable(1) %ref.tmp)
  br label %cond.end

cond.end:                                         ; preds = %cond.false, %cond.true
  %1 = load i64, ptr %len.addr, align 8
  ret i64 %1
}

; Function Attrs: mustprogress nounwind uwtable
define linkonce_odr void @_ZZNK4absl7debian211string_viewixEmENKUlvE_clEv(ptr noundef nonnull align 1 dereferenceable(1) %this) #0 comdat align 2 {
entry:
  %this.addr = alloca ptr, align 8
  store ptr %this, ptr %this.addr, align 8
  br label %do.body

do.body:                                          ; preds = %entry
  call void @llvm.trap()
  unreachable

do.end:                                           ; No predecessors!
  ret void
}

; Function Attrs: mustprogress uwtable
define linkonce_odr void @_ZN4absl7debian211string_view13remove_prefixEm(ptr noundef nonnull align 8 dereferenceable(16) %this, i64 noundef %n) #1 comdat align 2 {
entry:
  %this.addr = alloca ptr, align 8
  %n.addr = alloca i64, align 8
  %ref.tmp = alloca %class.anon.29, align 1
  store ptr %this, ptr %this.addr, align 8
  store i64 %n, ptr %n.addr, align 8
  %this1 = load ptr, ptr %this.addr, align 8
  %0 = load i64, ptr %n.addr, align 8
  %length_ = getelementptr inbounds %"class.absl::debian2::string_view", ptr %this1, i32 0, i32 1
  %1 = load i64, ptr %length_, align 8
  %cmp = icmp ule i64 %0, %1
  br i1 %cmp, label %cond.true, label %cond.false

cond.true:                                        ; preds = %entry
  br label %cond.end

cond.false:                                       ; preds = %entry
  call void @_ZZN4absl7debian211string_view13remove_prefixEmENKUlvE_clEv(ptr noundef nonnull align 1 dereferenceable(1) %ref.tmp)
  br label %cond.end

cond.end:                                         ; preds = %cond.false, %cond.true
  %2 = load i64, ptr %n.addr, align 8
  %ptr_ = getelementptr inbounds %"class.absl::debian2::string_view", ptr %this1, i32 0, i32 0
  %3 = load ptr, ptr %ptr_, align 8
  %add.ptr = getelementptr inbounds i8, ptr %3, i64 %2
  store ptr %add.ptr, ptr %ptr_, align 8
  %4 = load i64, ptr %n.addr, align 8
  %length_2 = getelementptr inbounds %"class.absl::debian2::string_view", ptr %this1, i32 0, i32 1
  %5 = load i64, ptr %length_2, align 8
  %sub = sub i64 %5, %4
  store i64 %sub, ptr %length_2, align 8
  ret void
}

; Function Attrs: mustprogress uwtable
define internal noundef ptr @_ZN3re2L15LookupPerlGroupEN4absl7debian211string_viewE(ptr %name.coerce0, i64 %name.coerce1) #1 {
entry:
  %name = alloca %"class.absl::debian2::string_view", align 8
  %agg.tmp = alloca %"class.absl::debian2::string_view", align 8
  %0 = getelementptr inbounds { ptr, i64 }, ptr %name, i32 0, i32 0
  store ptr %name.coerce0, ptr %0, align 8
  %1 = getelementptr inbounds { ptr, i64 }, ptr %name, i32 0, i32 1
  store i64 %name.coerce1, ptr %1, align 8
  call void @llvm.memcpy.p0.p0.i64(ptr align 8 %agg.tmp, ptr align 8 %name, i64 16, i1 false)
  %2 = load i32, ptr @_ZN3re215num_perl_groupsE, align 4
  %3 = getelementptr inbounds { ptr, i64 }, ptr %agg.tmp, i32 0, i32 0
  %4 = load ptr, ptr %3, align 8
  %5 = getelementptr inbounds { ptr, i64 }, ptr %agg.tmp, i32 0, i32 1
  %6 = load i64, ptr %5, align 8
  %call = call noundef ptr @_ZN3re2L11LookupGroupEN4absl7debian211string_viewEPKNS_6UGroupEi(ptr %4, i64 %6, ptr noundef @_ZN3re211perl_groupsE, i32 noundef %2)
  ret ptr %call
}

; Function Attrs: mustprogress uwtable
define linkonce_odr void @_ZN4absl7debian211string_viewC2EPKcm(ptr noundef nonnull align 8 dereferenceable(16) %this, ptr noundef %data, i64 noundef %len) unnamed_addr #1 comdat align 2 {
entry:
  %this.addr = alloca ptr, align 8
  %data.addr = alloca ptr, align 8
  %len.addr = alloca i64, align 8
  store ptr %this, ptr %this.addr, align 8
  store ptr %data, ptr %data.addr, align 8
  store i64 %len, ptr %len.addr, align 8
  %this1 = load ptr, ptr %this.addr, align 8
  %ptr_ = getelementptr inbounds %"class.absl::debian2::string_view", ptr %this1, i32 0, i32 0
  %0 = load ptr, ptr %data.addr, align 8
  store ptr %0, ptr %ptr_, align 8
  %length_ = getelementptr inbounds %"class.absl::debian2::string_view", ptr %this1, i32 0, i32 1
  %1 = load i64, ptr %len.addr, align 8
  %call = call noundef i64 @_ZN4absl7debian211string_view19CheckLengthInternalEm(i64 noundef %1)
  store i64 %call, ptr %length_, align 8
  ret void
}

; Function Attrs: mustprogress nounwind uwtable
define linkonce_odr noundef ptr @_ZNK4absl7debian211string_view4dataEv(ptr noundef nonnull align 8 dereferenceable(16) %this) #0 comdat align 2 {
entry:
  %this.addr = alloca ptr, align 8
  store ptr %this, ptr %this.addr, align 8
  %this1 = load ptr, ptr %this.addr, align 8
  %ptr_ = getelementptr inbounds %"class.absl::debian2::string_view", ptr %this1, i32 0, i32 0
  %0 = load ptr, ptr %ptr_, align 8
  ret ptr %0
}

; Function Attrs: mustprogress uwtable
define linkonce_odr noundef nonnull align 1 dereferenceable(1) ptr @_ZNK4absl7debian211string_viewixEm(ptr noundef nonnull align 8 dereferenceable(16) %this, i64 noundef %i) #1 comdat align 2 {
entry:
  %this.addr = alloca ptr, align 8
  %i.addr = alloca i64, align 8
  %ref.tmp = alloca %class.anon, align 1
  store ptr %this, ptr %this.addr, align 8
  store i64 %i, ptr %i.addr, align 8
  %this1 = load ptr, ptr %this.addr, align 8
  %0 = load i64, ptr %i.addr, align 8
  %call = call noundef i64 @_ZNK4absl7debian211string_view4sizeEv(ptr noundef nonnull align 8 dereferenceable(16) %this1) #12
  %cmp = icmp ult i64 %0, %call
  br i1 %cmp, label %cond.true, label %cond.false

cond.true:                                        ; preds = %entry
  br label %cond.end

cond.false:                                       ; preds = %entry
  call void @_ZZNK4absl7debian211string_viewixEmENKUlvE_clEv(ptr noundef nonnull align 1 dereferenceable(1) %ref.tmp)
  br label %cond.end

cond.end:                                         ; preds = %cond.false, %cond.true
  %ptr_ = getelementptr inbounds %"class.absl::debian2::string_view", ptr %this1, i32 0, i32 0
  %1 = load ptr, ptr %ptr_, align 8
  %2 = load i64, ptr %i.addr, align 8
  %arrayidx = getelementptr inbounds i8, ptr %1, i64 %2
  ret ptr %arrayidx
}

; Function Attrs: mustprogress nounwind uwtable
define linkonce_odr noundef i64 @_ZNK4absl7debian211string_view4sizeEv(ptr noundef nonnull align 8 dereferenceable(16) %this) #0 comdat align 2 {
entry:
  %this.addr = alloca ptr, align 8
  store ptr %this, ptr %this.addr, align 8
  %this1 = load ptr, ptr %this.addr, align 8
  %length_ = getelementptr inbounds %"class.absl::debian2::string_view", ptr %this1, i32 0, i32 1
  %0 = load i64, ptr %length_, align 8
  ret i64 %0
}

; Function Attrs: mustprogress nounwind uwtable
define linkonce_odr noundef i32 @_ZN3re2anENS_6Regexp10ParseFlagsES1_(i32 noundef %a, i32 noundef %b) #0 comdat {
entry:
  %a.addr = alloca i32, align 4
  %b.addr = alloca i32, align 4
  store i32 %a, ptr %a.addr, align 4
  store i32 %b, ptr %b.addr, align 4
  %0 = load i32, ptr %a.addr, align 4
  %1 = load i32, ptr %b.addr, align 4
  %and = and i32 %0, %1
  ret i32 %and
}

; Function Attrs: mustprogress uwtable
define noundef ptr @_ZN3re222MaybeParsePerlCCEscapeEPN4absl7debian211string_viewENS_6Regexp10ParseFlagsE(ptr noundef %s, i32 noundef %parse_flags) #1 {
entry:
  %retval = alloca ptr, align 8
  %s.addr = alloca ptr, align 8
  %parse_flags.addr = alloca i32, align 4
  %name = alloca %"class.absl::debian2::string_view", align 8
  %g = alloca ptr, align 8
  %agg.tmp = alloca %"class.absl::debian2::string_view", align 8
  store ptr %s, ptr %s.addr, align 8
  store i32 %parse_flags, ptr %parse_flags.addr, align 4
  %0 = load i32, ptr %parse_flags.addr, align 4
  %call = call noundef i32 @_ZN3re2anENS_6Regexp10ParseFlagsES1_(i32 noundef %0, i32 noundef 128)
  %tobool = icmp ne i32 %call, 0
  br i1 %tobool, label %if.end, label %if.then

if.then:                                          ; preds = %entry
  store ptr null, ptr %retval, align 8
  br label %return

if.end:                                           ; preds = %entry
  %1 = load ptr, ptr %s.addr, align 8
  %call1 = call noundef i64 @_ZNK4absl7debian211string_view4sizeEv(ptr noundef nonnull align 8 dereferenceable(16) %1) #12
  %cmp = icmp ult i64 %call1, 2
  br i1 %cmp, label %if.then4, label %lor.lhs.false

lor.lhs.false:                                    ; preds = %if.end
  %2 = load ptr, ptr %s.addr, align 8
  %call2 = call noundef nonnull align 1 dereferenceable(1) ptr @_ZNK4absl7debian211string_viewixEm(ptr noundef nonnull align 8 dereferenceable(16) %2, i64 noundef 0)
  %3 = load i8, ptr %call2, align 1
  %conv = sext i8 %3 to i32
  %cmp3 = icmp ne i32 %conv, 92
  br i1 %cmp3, label %if.then4, label %if.end5

if.then4:                                         ; preds = %lor.lhs.false, %if.end
  store ptr null, ptr %retval, align 8
  br label %return

if.end5:                                          ; preds = %lor.lhs.false
  %4 = load ptr, ptr %s.addr, align 8
  %call6 = call noundef ptr @_ZNK4absl7debian211string_view4dataEv(ptr noundef nonnull align 8 dereferenceable(16) %4) #12
  call void @_ZN4absl7debian211string_viewC2EPKcm(ptr noundef nonnull align 8 dereferenceable(16) %name, ptr noundef %call6, i64 noundef 2)
  call void @llvm.memcpy.p0.p0.i64(ptr align 8 %agg.tmp, ptr align 8 %name, i64 16, i1 false)
  %5 = getelementptr inbounds { ptr, i64 }, ptr %agg.tmp, i32 0, i32 0
  %6 = load ptr, ptr %5, align 8
  %7 = getelementptr inbounds { ptr, i64 }, ptr %agg.tmp, i32 0, i32 1
  %8 = load i64, ptr %7, align 8
  %call7 = call noundef ptr @_ZN3re2L15LookupPerlGroupEN4absl7debian211string_viewE(ptr %6, i64 %8)
  store ptr %call7, ptr %g, align 8
  %9 = load ptr, ptr %g, align 8
  %cmp8 = icmp eq ptr %9, null
  br i1 %cmp8, label %if.then9, label %if.end10

if.then9:                                         ; preds = %if.end5
  store ptr null, ptr %retval, align 8
  br label %return

if.end10:                                         ; preds = %if.end5
  %10 = load ptr, ptr %s.addr, align 8
  %call11 = call noundef i64 @_ZNK4absl7debian211string_view4sizeEv(ptr noundef nonnull align 8 dereferenceable(16) %name) #12
  call void @_ZN4absl7debian211string_view13remove_prefixEm(ptr noundef nonnull align 8 dereferenceable(16) %10, i64 noundef %call11)
  %11 = load ptr, ptr %g, align 8
  store ptr %11, ptr %retval, align 8
  br label %return

return:                                           ; preds = %if.end10, %if.then9, %if.then4, %if.then
  %12 = load ptr, ptr %retval, align 8
  ret ptr %12
}