; Function Attrs: mustprogress nounwind memory(read, argmem: readwrite, inaccessiblemem: write) uwtable
define noundef ptr @_ZN3re222MaybeParsePerlCCEscapeEPN4absl7debian211string_viewENS_6Regexp10ParseFlagsE(ptr nocapture noundef %s, i32 noundef %parse_flags) local_unnamed_addr #14 {
entry:
  %and.i = and i32 %parse_flags, 128
  %tobool.not = icmp eq i32 %and.i, 0
  br i1 %tobool.not, label %return, label %if.end

if.end:                                           ; preds = %entry
  %length_.i = getelementptr inbounds i8, ptr %s, i64 8
  %0 = load i64, ptr %length_.i, align 8
  %cmp = icmp ult i64 %0, 2
  br i1 %cmp, label %return, label %_ZNK4absl7debian211string_viewixEm.exit

_ZNK4absl7debian211string_viewixEm.exit:          ; preds = %if.end
  %1 = load ptr, ptr %s, align 8
  %2 = load i8, ptr %1, align 1
  %cmp3.not = icmp eq i8 %2, 92
  br i1 %cmp3.not, label %if.end5, label %return

if.end5:                                          ; preds = %_ZNK4absl7debian211string_viewixEm.exit
  %3 = load i32, ptr @_ZN3re215num_perl_groupsE, align 4
  %cmp13.i.i = icmp sgt i32 %3, 0
  br i1 %cmp13.i.i, label %for.body.lr.ph.i.i, label %return

for.body.lr.ph.i.i:                               ; preds = %if.end5
  %wide.trip.count32.i.i = zext nneg i32 %3 to i64
  br label %for.body.i.i

for.body.i.i:                                     ; preds = %for.body.lr.ph.i.i, %for.inc.i.i
  %indvars.iv.i.i = phi i64 [ %indvars.iv.next.i.i, %for.inc.i.i ], [ 0, %for.body.lr.ph.i.i ]
  %arrayidx.i.i = getelementptr inbounds %"struct.re2::UGroup", ptr @_ZN3re211perl_groupsE, i64 %indvars.iv.i.i
  %4 = load ptr, ptr %arrayidx.i.i, align 8
  %tobool.not.i.i.i = icmp eq ptr %4, null
  br i1 %tobool.not.i.i.i, label %for.inc.i.i, label %cond.true.i.i.i

cond.true.i.i.i:                                  ; preds = %for.body.i.i
  %call.i.i.i.i = tail call noundef i64 @strlen(ptr noundef nonnull dereferenceable(1) %4) #25
  %cmp.i.i.i.i = icmp sgt i64 %call.i.i.i.i, -1
  br i1 %cmp.i.i.i.i, label %_ZN4absl7debian211string_viewC2EPKc.exit.i.i, label %cond.false.i.i.i.i

cond.false.i.i.i.i:                               ; preds = %cond.true.i.i.i
  tail call void @llvm.trap()
  unreachable

_ZN4absl7debian211string_viewC2EPKc.exit.i.i:     ; preds = %cond.true.i.i.i
  %cmp.i.i.i = icmp eq i64 %call.i.i.i.i, 2
  br i1 %cmp.i.i.i, label %_ZN4absl7debian2eqENS0_11string_viewES1_.exit.i.i, label %for.inc.i.i

_ZN4absl7debian2eqENS0_11string_viewES1_.exit.i.i: ; preds = %_ZN4absl7debian211string_viewC2EPKc.exit.i.i
  %bcmp.i.i.i = tail call i32 @bcmp(ptr noundef nonnull dereferenceable(2) %4, ptr noundef nonnull dereferenceable(2) %1, i64 2)
  %cmp7.i.i.i = icmp eq i32 %bcmp.i.i.i, 0
  br i1 %cmp7.i.i.i, label %_ZN4absl7debian211string_view13remove_prefixEm.exit, label %for.inc.i.i

for.inc.i.i:                                      ; preds = %_ZN4absl7debian2eqENS0_11string_viewES1_.exit.i.i, %_ZN4absl7debian211string_viewC2EPKc.exit.i.i, %for.body.i.i
  %indvars.iv.next.i.i = add nuw nsw i64 %indvars.iv.i.i, 1
  %exitcond.not.i.i = icmp eq i64 %indvars.iv.next.i.i, %wide.trip.count32.i.i
  br i1 %exitcond.not.i.i, label %return, label %for.body.i.i, !llvm.loop !47

_ZN4absl7debian211string_view13remove_prefixEm.exit: ; preds = %_ZN4absl7debian2eqENS0_11string_viewES1_.exit.i.i
  %add.ptr.i = getelementptr inbounds i8, ptr %1, i64 2
  store ptr %add.ptr.i, ptr %s, align 8
  %sub.i = add i64 %0, -2
  store i64 %sub.i, ptr %length_.i, align 8
  br label %return

return:                                           ; preds = %for.inc.i.i, %if.end5, %if.end, %_ZNK4absl7debian211string_viewixEm.exit, %entry, %_ZN4absl7debian211string_view13remove_prefixEm.exit
  %retval.0 = phi ptr [ %arrayidx.i.i, %_ZN4absl7debian211string_view13remove_prefixEm.exit ], [ null, %entry ], [ null, %_ZNK4absl7debian211string_viewixEm.exit ], [ null, %if.end ], [ null, %if.end5 ], [ null, %for.inc.i.i ]
  ret ptr %retval.0
}